target datalayout = "e-m:e-p270:32:32-p271:32:32-p272:64:64-i64:64-i128:128-f80:128-n8:16:32:64-S128"
target triple = "x86_64-pc-linux-gnu"

%struct.SDL_Pen = type { i32, ptr, %struct.SDL_PenInfo, [7 x float], float, float, i32, ptr }
%struct.SDL_PenInfo = type { i32, float, i32, i32, i32 }

@pen_device_rwlock = internal global ptr null, align 8
@pen_device_count = internal global i32 0, align 4
@pen_devices = internal global ptr null, align 8
@pen_touching = internal global i32 0, align 4

; Function Attrs: nounwind uwtable
define hidden void @SDL_QuitPen() #0 {
  %1 = alloca i32, align 4
  %2 = load ptr, ptr @pen_device_rwlock, align 8
  call void @SDL_DestroyRWLock_REAL(ptr noundef %2)
  store ptr null, ptr @pen_device_rwlock, align 8
  %3 = load ptr, ptr @pen_devices, align 8
  %4 = icmp ne ptr %3, null
  br i1 %4, label %5, label %21

5:                                                ; preds = %0
  call void @llvm.lifetime.start.p0(i64 4, ptr %1) #6
  %6 = load i32, ptr @pen_device_count, align 4
  store i32 %6, ptr %1, align 4
  br label %7

7:                                                ; preds = %12, %5
  %8 = load i32, ptr %1, align 4
  %9 = add nsw i32 %8, -1
  store i32 %9, ptr %1, align 4
  %10 = icmp ne i32 %8, 0
  br i1 %10, label %12, label %11

11:                                               ; preds = %7
  call void @llvm.lifetime.end.p0(i64 4, ptr %1) #6
  br label %19

12:                                               ; preds = %7
  %13 = load ptr, ptr @pen_devices, align 8
  %14 = load i32, ptr %1, align 4
  %15 = sext i32 %14 to i64
  %16 = getelementptr inbounds %struct.SDL_Pen, ptr %13, i64 %15
  %17 = getelementptr inbounds nuw %struct.SDL_Pen, ptr %16, i32 0, i32 1
  %18 = load ptr, ptr %17, align 8
  call void @SDL_free_REAL(ptr noundef %18)
  br label %7, !llvm.loop !6

19:                                               ; preds = %11
  %20 = load ptr, ptr @pen_devices, align 8
  call void @SDL_free_REAL(ptr noundef %20)
  store ptr null, ptr @pen_devices, align 8
  br label %21

21:                                               ; preds = %19, %0
  store i32 0, ptr @pen_device_count, align 4
  store i32 0, ptr @pen_touching, align 4
  ret void
}