; Function Attrs: nounwind uwtable
define hidden void @SDL_QuitPen() local_unnamed_addr #0 {
  %1 = load ptr, ptr @pen_device_rwlock, align 8
  tail call void @SDL_DestroyRWLock_REAL(ptr noundef %1) #8
  store ptr null, ptr @pen_device_rwlock, align 8
  %2 = load ptr, ptr @pen_devices, align 8
  %.not = icmp eq ptr %2, null
  br i1 %.not, label %10, label %3

3:                                                ; preds = %0
  %4 = load i32, ptr @pen_device_count, align 4
  %.not23 = icmp eq i32 %4, 0
  br i1 %.not23, label %._crit_edge, label %.lr.ph.preheader

.lr.ph.preheader:                                 ; preds = %3
  %5 = sext i32 %4 to i64
  br label %.lr.ph

._crit_edge.loopexit:                             ; preds = %.lr.ph
  %.pre = load ptr, ptr @pen_devices, align 8
  br label %._crit_edge

._crit_edge:                                      ; preds = %._crit_edge.loopexit, %3
  %6 = phi ptr [ %.pre, %._crit_edge.loopexit ], [ %2, %3 ]
  tail call void @SDL_free_REAL(ptr noundef %6) #8
  store ptr null, ptr @pen_devices, align 8
  br label %10

.lr.ph:                                           ; preds = %.lr.ph.preheader, %.lr.ph
  %indvars.iv = phi i64 [ %5, %.lr.ph.preheader ], [ %indvars.iv.next, %.lr.ph ]
  %indvars.iv.next = add nsw i64 %indvars.iv, -1
  %7 = load ptr, ptr @pen_devices, align 8
  %8 = getelementptr inbounds %struct.SDL_Pen, ptr %7, i64 %indvars.iv.next, i32 1
  %9 = load ptr, ptr %8, align 8
  tail call void @SDL_free_REAL(ptr noundef %9) #8
  %.not2 = icmp eq i64 %indvars.iv.next, 0
  br i1 %.not2, label %._crit_edge.loopexit, label %.lr.ph, !llvm.loop !6

10:                                               ; preds = %._crit_edge, %0
  store i32 0, ptr @pen_device_count, align 4
  store i32 0, ptr @pen_touching, align 4
  ret void
}